target datalayout = "e-m:e-p270:32:32-p271:32:32-p272:64:64-i64:64-i128:128-f80:128-n8:16:32:64-S128"
target triple = "x86_64-pc-linux-gnu"

%"class.Ipopt::DenseSymMatrix" = type <{ %"class.Ipopt::SymMatrix", ptr, ptr, i8, [7 x i8] }>
%"class.Ipopt::SymMatrix" = type { %"class.Ipopt::Matrix.base", ptr }
%"class.Ipopt::Matrix.base" = type <{ %"class.Ipopt::TaggedObject", %"class.Ipopt::SmartPtr", i32, i8 }>
%"class.Ipopt::TaggedObject" = type { %"class.Ipopt::ReferencedObject.base", %"class.Ipopt::Subject", i32, i32 }
%"class.Ipopt::ReferencedObject.base" = type <{ ptr, i32 }>
%"class.Ipopt::Subject" = type { ptr, %"class.std::vector" }
%"class.std::vector" = type { %"struct.std::_Vector_base" }
%"struct.std::_Vector_base" = type { %"struct.std::_Vector_base<Ipopt::Observer *, std::allocator<Ipopt::Observer *>>::_Vector_impl" }
%"struct.std::_Vector_base<Ipopt::Observer *, std::allocator<Ipopt::Observer *>>::_Vector_impl" = type { %"struct.std::_Vector_base<Ipopt::Observer *, std::allocator<Ipopt::Observer *>>::_Vector_impl_data" }
%"struct.std::_Vector_base<Ipopt::Observer *, std::allocator<Ipopt::Observer *>>::_Vector_impl_data" = type { ptr, ptr, ptr }
%"class.Ipopt::SmartPtr" = type { ptr }
%"class.Ipopt::MatrixSpace" = type { %"class.Ipopt::ReferencedObject.base", i32, i32, [4 x i8] }

; Function Attrs: mustprogress nounwind uwtable
define linkonce_odr noundef i32 @_ZNK5Ipopt11MatrixSpace5NRowsEv(ptr noundef nonnull align 8 dereferenceable(20) %0) #5 comdat align 2 {
  %2 = alloca ptr, align 8
  store ptr %0, ptr %2, align 8, !tbaa !165
  %3 = load ptr, ptr %2, align 8
  %4 = getelementptr inbounds nuw %"class.Ipopt::MatrixSpace", ptr %3, i32 0, i32 1
  %5 = load i32, ptr %4, align 4, !tbaa !175
  ret i32 %5
}

; Function Attrs: mustprogress nounwind uwtable
define linkonce_odr noundef i32 @_ZNK5Ipopt14SymMatrixSpace3DimEv(ptr noundef nonnull align 8 dereferenceable(20) %0) #5 comdat align 2 {
  %2 = alloca ptr, align 8
  store ptr %0, ptr %2, align 8, !tbaa !35
  %3 = load ptr, ptr %2, align 8
  %4 = call noundef i32 @_ZNK5Ipopt11MatrixSpace5NRowsEv(ptr noundef nonnull align 8 dereferenceable(20) %3)
  ret i32 %4
}

; Function Attrs: inlinehint mustprogress uwtable
define linkonce_odr noundef i32 @_ZNK5Ipopt9SymMatrix3DimEv(ptr noundef nonnull align 8 dereferenceable(80) %0) #2 comdat align 2 {
  %2 = alloca ptr, align 8
  store ptr %0, ptr %2, align 8, !tbaa !33
  %3 = load ptr, ptr %2, align 8
  %4 = getelementptr inbounds nuw %"class.Ipopt::SymMatrix", ptr %3, i32 0, i32 1
  %5 = load ptr, ptr %4, align 8, !tbaa !36
  %6 = call noundef i32 @_ZNK5Ipopt14SymMatrixSpace3DimEv(ptr noundef nonnull align 8 dereferenceable(20) %5)
  ret i32 %6
}

; Function Attrs: mustprogress uwtable
define void @_ZN5Ipopt14DenseSymMatrix12FillIdentityEd(ptr noundef nonnull align 8 dereferenceable(97) %0, double noundef %1) #1 align 2 {
  %3 = alloca ptr, align 8
  %4 = alloca double, align 8
  %5 = alloca i32, align 4
  %6 = alloca i32, align 4
  %7 = alloca i32, align 4
  %8 = alloca i32, align 4
  store ptr %0, ptr %3, align 8, !tbaa !3
  store double %1, ptr %4, align 8, !tbaa !39
  %9 = load ptr, ptr %3, align 8
  call void @llvm.lifetime.start.p0(i64 4, ptr %5) #17
  %10 = call noundef i32 @_ZNK5Ipopt9SymMatrix3DimEv(ptr noundef nonnull align 8 dereferenceable(80) %9)
  store i32 %10, ptr %5, align 4, !tbaa !57
  call void @llvm.lifetime.start.p0(i64 4, ptr %6) #17
  store i32 0, ptr %6, align 4, !tbaa !57
  br label %11

11:                                               ; preds = %48, %2
  %12 = load i32, ptr %6, align 4, !tbaa !57
  %13 = load i32, ptr %5, align 4, !tbaa !57
  %14 = icmp slt i32 %12, %13
  br i1 %14, label %16, label %15

15:                                               ; preds = %11
  store i32 2, ptr %7, align 4
  call void @llvm.lifetime.end.p0(i64 4, ptr %6) #17
  br label %51

16:                                               ; preds = %11
  %17 = load double, ptr %4, align 8, !tbaa !39
  %18 = getelementptr inbounds nuw %"class.Ipopt::DenseSymMatrix", ptr %9, i32 0, i32 2
  %19 = load ptr, ptr %18, align 8, !tbaa !31
  %20 = load i32, ptr %6, align 4, !tbaa !57
  %21 = load i32, ptr %6, align 4, !tbaa !57
  %22 = load i32, ptr %5, align 4, !tbaa !57
  %23 = mul nsw i32 %21, %22
  %24 = add nsw i32 %20, %23
  %25 = sext i32 %24 to i64
  %26 = getelementptr inbounds double, ptr %19, i64 %25
  store double %17, ptr %26, align 8, !tbaa !39
  call void @llvm.lifetime.start.p0(i64 4, ptr %8) #17
  %27 = load i32, ptr %6, align 4, !tbaa !57
  %28 = add nsw i32 %27, 1
  store i32 %28, ptr %8, align 4, !tbaa !57
  br label %29

29:                                               ; preds = %44, %16
  %30 = load i32, ptr %8, align 4, !tbaa !57
  %31 = load i32, ptr %5, align 4, !tbaa !57
  %32 = icmp slt i32 %30, %31
  br i1 %32, label %34, label %33

33:                                               ; preds = %29
  store i32 5, ptr %7, align 4
  call void @llvm.lifetime.end.p0(i64 4, ptr %8) #17
  br label %47

34:                                               ; preds = %29
  %35 = getelementptr inbounds nuw %"class.Ipopt::DenseSymMatrix", ptr %9, i32 0, i32 2
  %36 = load ptr, ptr %35, align 8, !tbaa !31
  %37 = load i32, ptr %8, align 4, !tbaa !57
  %38 = load i32, ptr %6, align 4, !tbaa !57
  %39 = load i32, ptr %5, align 4, !tbaa !57
  %40 = mul nsw i32 %38, %39
  %41 = add nsw i32 %37, %40
  %42 = sext i32 %41 to i64
  %43 = getelementptr inbounds double, ptr %36, i64 %42
  store double 0.000000e+00, ptr %43, align 8, !tbaa !39
  br label %44

44:                                               ; preds = %34
  %45 = load i32, ptr %8, align 4, !tbaa !57
  %46 = add nsw i32 %45, 1
  store i32 %46, ptr %8, align 4, !tbaa !57
  br label %29, !llvm.loop !58

47:                                               ; preds = %33
  br label %48

48:                                               ; preds = %47
  %49 = load i32, ptr %6, align 4, !tbaa !57
  %50 = add nsw i32 %49, 1
  store i32 %50, ptr %6, align 4, !tbaa !57
  br label %11, !llvm.loop !60

51:                                               ; preds = %15
  call void @_ZN5Ipopt12TaggedObject13ObjectChangedEv(ptr noundef nonnull align 8 dereferenceable(56) %9)
  %52 = getelementptr inbounds nuw %"class.Ipopt::DenseSymMatrix", ptr %9, i32 0, i32 3
  store i8 1, ptr %52, align 8, !tbaa !32
  call void @llvm.lifetime.end.p0(i64 4, ptr %5) #17
  ret void
}