; Function Attrs: mustprogress uwtable
define void @_ZN5Ipopt14DenseSymMatrix12FillIdentityEd(ptr noundef nonnull align 8 dereferenceable(97) %0, double noundef %1) local_unnamed_addr #1 align 2 {
  %3 = getelementptr inbounds nuw i8, ptr %0, i64 72
  %4 = load ptr, ptr %3, align 8, !tbaa !25
  %5 = getelementptr inbounds nuw i8, ptr %4, i64 12
  %6 = load i32, ptr %5, align 4, !tbaa !34
  %7 = icmp sgt i32 %6, 0
  br i1 %7, label %.lr.ph18, label %._crit_edge

.lr.ph18:                                         ; preds = %2
  %8 = getelementptr inbounds nuw i8, ptr %0, i64 88
  %9 = load ptr, ptr %8, align 8, !tbaa !35
  %10 = add nuw i32 %6, 1
  %11 = add nsw i32 %6, -2
  %12 = zext nneg i32 %6 to i64
  %wide.trip.count = zext nneg i32 %6 to i64
  br label %14

.loopexit:                                        ; preds = %.lr.ph.preheader, %14
  %exitcond.not = icmp eq i64 %indvars.iv.next23, %wide.trip.count
  br i1 %exitcond.not, label %._crit_edge, label %14, !llvm.loop !53

._crit_edge:                                      ; preds = %.loopexit, %2
  tail call void @_ZN5Ipopt12TaggedObject13ObjectChangedEv(ptr noundef nonnull align 8 dereferenceable(56) %0)
  %13 = getelementptr inbounds nuw i8, ptr %0, i64 96
  store i8 1, ptr %13, align 8, !tbaa !36
  ret void

14:                                               ; preds = %.lr.ph18, %.loopexit
  %indvars.iv22 = phi i64 [ 0, %.lr.ph18 ], [ %indvars.iv.next23, %.loopexit ]
  %indvars24 = trunc i64 %indvars.iv22 to i32
  %15 = mul nuw nsw i32 %6, %indvars24
  %16 = zext i32 %15 to i64
  %17 = getelementptr inbounds nuw double, ptr %9, i64 %indvars.iv22
  %18 = getelementptr inbounds nuw double, ptr %17, i64 %16
  store double %1, ptr %18, align 8, !tbaa !55
  %indvars.iv.next23 = add nuw nsw i64 %indvars.iv22, 1
  %19 = icmp samesign ult i64 %indvars.iv.next23, %12
  br i1 %19, label %.lr.ph.preheader, label %.loopexit

.lr.ph.preheader:                                 ; preds = %14
  %20 = trunc i64 %indvars.iv22 to i32
  %21 = sub i32 %11, %20
  %22 = zext i32 %21 to i64
  %23 = shl nuw nsw i64 %22, 3
  %24 = add nuw nsw i64 %23, 8
  %25 = mul i32 %10, %indvars24
  %26 = add i32 %25, 1
  %27 = zext i32 %26 to i64
  %28 = shl nuw nsw i64 %27, 3
  %scevgep = getelementptr i8, ptr %9, i64 %28
  tail call void @llvm.memset.p0.i64(ptr noundef nonnull align 8 dereferenceable(1) %scevgep, i8 0, i64 %24, i1 false), !tbaa !55
  br label %.loopexit
}